; Function Attrs: nounwind uwtable
define void @Sbc_ManAddInternalToPath(ptr noundef %0, ptr noundef readonly captures(none) %1) local_unnamed_addr #2 {
  %3 = getelementptr i8, ptr %0, i64 24
  %.val2529 = load i32, ptr %3, align 8, !tbaa !37
  %4 = icmp sgt i32 %.val2529, 1
  br i1 %4, label %.lr.ph31, label %._crit_edge

.lr.ph31:                                         ; preds = %2
  %5 = getelementptr i8, ptr %0, i64 264
  %6 = getelementptr i8, ptr %1, i64 8
  %7 = getelementptr i8, ptr %0, i64 176
  %8 = getelementptr i8, ptr %0, i64 616
  br label %9

9:                                                ; preds = %.lr.ph31, %43
  %.val2536 = phi i32 [ %.val2529, %.lr.ph31 ], [ %.val25, %43 ]
  %indvars.iv33 = phi i64 [ 1, %.lr.ph31 ], [ %indvars.iv.next34, %43 ]
  %.val26 = load ptr, ptr %5, align 8, !tbaa !33
  %10 = getelementptr i8, ptr %.val26, i64 8
  %.val26.val = load ptr, ptr %10, align 8, !tbaa !34
  %11 = getelementptr inbounds nuw i32, ptr %.val26.val, i64 %indvars.iv33
  %12 = load i32, ptr %11, align 4, !tbaa !29
  %.not27 = icmp eq i32 %12, 0
  br i1 %.not27, label %43, label %13

13:                                               ; preds = %9
  %.val = load ptr, ptr %6, align 8, !tbaa !30
  %14 = trunc nuw nsw i64 %indvars.iv33 to i32
  %15 = lshr i64 %indvars.iv33, 5
  %16 = and i64 %15, 134217727
  %17 = getelementptr inbounds nuw i32, ptr %.val, i64 %16
  %18 = load i32, ptr %17, align 4, !tbaa !29
  %19 = and i32 %14, 31
  %20 = shl nuw i32 1, %19
  %21 = and i32 %18, %20
  %.not20 = icmp eq i32 %21, 0
  br i1 %.not20, label %43, label %22

22:                                               ; preds = %13
  tail call void @Gia_ManIncrementTravId(ptr noundef nonnull %0) #9
  %.val23 = load ptr, ptr %5, align 8, !tbaa !33
  %23 = getelementptr i8, ptr %.val23, i64 8
  %.val23.val = load ptr, ptr %23, align 8, !tbaa !34
  %24 = getelementptr inbounds nuw i32, ptr %.val23.val, i64 %indvars.iv33
  %25 = load i32, ptr %24, align 4, !tbaa !29
  %26 = sext i32 %25 to i64
  %27 = getelementptr inbounds i32, ptr %.val23.val, i64 %26
  %28 = load i32, ptr %27, align 4, !tbaa !29
  %29 = icmp sgt i32 %28, 0
  br i1 %29, label %.lr.ph, label %.critedge

.lr.ph:                                           ; preds = %22
  %.val22 = load ptr, ptr %8, align 8, !tbaa !28
  %.val21.pre = load i32, ptr %7, align 8, !tbaa !3
  %invariant.gep = getelementptr i8, ptr %.val23.val, i64 4
  br label %30

30:                                               ; preds = %.lr.ph, %30
  %indvars.iv = phi i64 [ 0, %.lr.ph ], [ %indvars.iv.next, %30 ]
  %31 = phi i64 [ %26, %.lr.ph ], [ %37, %30 ]
  %gep = getelementptr i32, ptr %invariant.gep, i64 %31
  %32 = getelementptr inbounds nuw i32, ptr %gep, i64 %indvars.iv
  %33 = load i32, ptr %32, align 4, !tbaa !29
  %34 = sext i32 %33 to i64
  %35 = getelementptr inbounds i32, ptr %.val22, i64 %34
  store i32 %.val21.pre, ptr %35, align 4, !tbaa !29
  %indvars.iv.next = add nuw nsw i64 %indvars.iv, 1
  %36 = load i32, ptr %24, align 4, !tbaa !29
  %37 = sext i32 %36 to i64
  %38 = getelementptr inbounds i32, ptr %.val23.val, i64 %37
  %39 = load i32, ptr %38, align 4, !tbaa !29
  %40 = sext i32 %39 to i64
  %41 = icmp slt i64 %indvars.iv.next, %40
  br i1 %41, label %30, label %.critedge, !llvm.loop !38

.critedge:                                        ; preds = %30, %22
  %42 = tail call i32 @Sbc_ManAddInternalToPath_rec(ptr noundef nonnull %0, i32 noundef %14, ptr noundef %1)
  %.val25.pre = load i32, ptr %3, align 8, !tbaa !37
  br label %43

43:                                               ; preds = %.critedge, %9, %13
  %.val25 = phi i32 [ %.val25.pre, %.critedge ], [ %.val2536, %9 ], [ %.val2536, %13 ]
  %indvars.iv.next34 = add nuw nsw i64 %indvars.iv33, 1
  %44 = sext i32 %.val25 to i64
  %45 = icmp slt i64 %indvars.iv.next34, %44
  br i1 %45, label %9, label %._crit_edge, !llvm.loop !39

._crit_edge:                                      ; preds = %43, %2
  ret void
}